; ModuleID = 'source-C-CXX/15/912.c'
source_filename = "source-C-CXX/15/912.c"
target datalayout = "e-m:e-p270:32:32-p271:32:32-p272:64:64-i64:64-f80:128-n8:16:32:64-S128"
target triple = "x86_64-pc-linux-gnu"

%struct._IO_FILE = type { i32, i8*, i8*, i8*, i8*, i8*, i8*, i8*, i8*, i8*, i8*, i8*, %struct._IO_marker*, %struct._IO_FILE*, i32, i32, i64, i16, i8, [1 x i8], i8*, i64, %struct._IO_codecvt*, %struct._IO_wide_data*, %struct._IO_FILE*, i8*, i64, i32, [20 x i8] }
%struct._IO_marker = type opaque
%struct._IO_codecvt = type opaque
%struct._IO_wide_data = type opaque

@.str = private unnamed_addr constant [3 x i8] c"%d\00", align 1
@stdin = external local_unnamed_addr global %struct._IO_FILE*, align 8

; Function Attrs: nofree nounwind sspstrong uwtable
define dso_local i32 @main() local_unnamed_addr #0 {
  %1 = alloca i32, align 4
  %2 = alloca [5 x i32], align 16
  %3 = bitcast i32* %1 to i8*
  call void @llvm.lifetime.start.p0i8(i64 4, i8* nonnull %3) #3
  %4 = bitcast [5 x i32]* %2 to i8*
  call void @llvm.lifetime.start.p0i8(i64 20, i8* nonnull %4) #3
  %5 = call i32 (i8*, ...) @__isoc99_scanf(i8* getelementptr inbounds ([3 x i8], [3 x i8]* @.str, i64 0, i64 0), i32* nonnull %1)
  %6 = load i32, i32* %1, align 4, !tbaa !5
  %7 = icmp sgt i32 %6, 0
  br i1 %7, label %13, label %28

8:                                                ; preds = %13
  %9 = trunc i64 %18 to i32
  store i32 %19, i32* %1, align 4, !tbaa !5
  %10 = icmp eq i32 %9, 0
  br i1 %10, label %28, label %11

11:                                               ; preds = %8
  %12 = and i64 %18, 4294967295
  br label %21

13:                                               ; preds = %0, %13
  %14 = phi i64 [ %18, %13 ], [ 0, %0 ]
  %15 = phi i32 [ %19, %13 ], [ %6, %0 ]
  %16 = urem i32 %15, 10
  %17 = getelementptr inbounds [5 x i32], [5 x i32]* %2, i64 0, i64 %14
  store i32 %16, i32* %17, align 4, !tbaa !5
  %18 = add nuw i64 %14, 1
  %19 = udiv i32 %15, 10
  %20 = icmp ult i32 %15, 10
  br i1 %20, label %8, label %13, !llvm.loop !9

21:                                               ; preds = %11, %21
  %22 = phi i64 [ 0, %11 ], [ %26, %21 ]
  %23 = getelementptr inbounds [5 x i32], [5 x i32]* %2, i64 0, i64 %22
  %24 = load i32, i32* %23, align 4, !tbaa !5
  %25 = call i32 (i8*, ...) @printf(i8* nonnull dereferenceable(1) getelementptr inbounds ([3 x i8], [3 x i8]* @.str, i64 0, i64 0), i32 %24)
  %26 = add nuw nsw i64 %22, 1
  %27 = icmp eq i64 %26, %12
  br i1 %27, label %28, label %21, !llvm.loop !11

28:                                               ; preds = %21, %0, %8
  %29 = load %struct._IO_FILE*, %struct._IO_FILE** @stdin, align 8, !tbaa !12
  %30 = call i32 @getc(%struct._IO_FILE* %29) #3
  %31 = load %struct._IO_FILE*, %struct._IO_FILE** @stdin, align 8, !tbaa !12
  %32 = call i32 @getc(%struct._IO_FILE* %31) #3
  call void @llvm.lifetime.end.p0i8(i64 20, i8* nonnull %4) #3
  call void @llvm.lifetime.end.p0i8(i64 4, i8* nonnull %3) #3
  ret i32 0
}

; Function Attrs: argmemonly mustprogress nofree nosync nounwind willreturn
declare void @llvm.lifetime.start.p0i8(i64 immarg, i8* nocapture) #1

; Function Attrs: nofree nounwind
declare noundef i32 @__isoc99_scanf(i8* nocapture noundef readonly, ...) local_unnamed_addr #2

; Function Attrs: nofree nounwind
declare noundef i32 @printf(i8* nocapture noundef readonly, ...) local_unnamed_addr #2

; Function Attrs: argmemonly mustprogress nofree nosync nounwind willreturn
declare void @llvm.lifetime.end.p0i8(i64 immarg, i8* nocapture) #1

; Function Attrs: nofree nounwind
declare noundef i32 @getc(%struct._IO_FILE* nocapture noundef) local_unnamed_addr #2


!llvm.module.flags = !{!0, !1, !2, !3}
!llvm.ident = !{!4}

!0 = !{i32 1, !"wchar_size", i32 4}
!1 = !{i32 7, !"PIC Level", i32 2}
!2 = !{i32 7, !"PIE Level", i32 2}
!3 = !{i32 7, !"uwtable", i32 1}
!4 = !{!"clang version 13.0.0"}
!5 = !{!6, !6, i64 0}
!6 = !{!"int", !7, i64 0}
!7 = !{!"omnipotent char", !8, i64 0}
!8 = !{!"Simple C/C++ TBAA"}
!9 = distinct !{!9, !10}
!10 = !{!"llvm.loop.mustprogress"}
!11 = distinct !{!11, !10}
!12 = !{!13, !13, i64 0}
!13 = !{!"any pointer", !7, i64 0}
